target datalayout = "e-m:e-p270:32:32-p271:32:32-p272:64:64-i64:64-i128:128-f80:128-n8:16:32:64-S128"
target triple = "x86_64-pc-linux-gnu"

%struct.Abc_Obj_t_ = type { ptr, ptr, i32, i32, %struct.Vec_Int_t_, %struct.Vec_Int_t_, %union.anon, %union.anon.0 }
%struct.Vec_Int_t_ = type { i32, i32, ptr }
%union.anon = type { ptr }
%union.anon.0 = type { ptr }
%struct.Abc_Ntk_t_ = type { i32, i32, ptr, ptr, ptr, ptr, ptr, ptr, ptr, ptr, ptr, ptr, ptr, [11 x i32], i32, i32, i32, i32, ptr, i32, ptr, ptr, i32, i32, i32, double, i32, %struct.Vec_Int_t_, ptr, ptr, ptr, ptr, ptr, float, i32, ptr, ptr, ptr, ptr, ptr, ptr, ptr, ptr, ptr, ptr, ptr, ptr, ptr, ptr, ptr, ptr, ptr, ptr, ptr, ptr, ptr, ptr }
%struct.Vec_Ptr_t_ = type { i32, i32, ptr }

@s__Truths6 = internal global [6 x i64] [i64 -6148914691236517206, i64 -3689348814741910324, i64 -1085102592571150096, i64 -71777214294589696, i64 -281470681808896, i64 -4294967296], align 16

; Function Attrs: inlinehint nounwind uwtable
define internal ptr @Abc_ObjFanin(ptr noundef %0, i32 noundef %1) #3 {
  %3 = alloca ptr, align 8
  %4 = alloca i32, align 4
  store ptr %0, ptr %3, align 8, !tbaa !10
  store i32 %1, ptr %4, align 4, !tbaa !8
  %5 = load ptr, ptr %3, align 8, !tbaa !10
  %6 = getelementptr inbounds nuw %struct.Abc_Obj_t_, ptr %5, i32 0, i32 0
  %7 = load ptr, ptr %6, align 8, !tbaa !82
  %8 = getelementptr inbounds nuw %struct.Abc_Ntk_t_, ptr %7, i32 0, i32 5
  %9 = load ptr, ptr %8, align 8, !tbaa !30
  %10 = getelementptr inbounds nuw %struct.Vec_Ptr_t_, ptr %9, i32 0, i32 2
  %11 = load ptr, ptr %10, align 8, !tbaa !93
  %12 = load ptr, ptr %3, align 8, !tbaa !10
  %13 = getelementptr inbounds nuw %struct.Abc_Obj_t_, ptr %12, i32 0, i32 4
  %14 = getelementptr inbounds nuw %struct.Vec_Int_t_, ptr %13, i32 0, i32 2
  %15 = load ptr, ptr %14, align 8, !tbaa !94
  %16 = load i32, ptr %4, align 4, !tbaa !8
  %17 = sext i32 %16 to i64
  %18 = getelementptr inbounds i32, ptr %15, i64 %17
  %19 = load i32, ptr %18, align 4, !tbaa !8
  %20 = sext i32 %19 to i64
  %21 = getelementptr inbounds ptr, ptr %11, i64 %20
  %22 = load ptr, ptr %21, align 8, !tbaa !95
  ret ptr %22
}

; Function Attrs: inlinehint nounwind uwtable
define internal i32 @Abc_ObjFaninNum(ptr noundef %0) #3 {
  %2 = alloca ptr, align 8
  store ptr %0, ptr %2, align 8, !tbaa !10
  %3 = load ptr, ptr %2, align 8, !tbaa !10
  %4 = getelementptr inbounds nuw %struct.Abc_Obj_t_, ptr %3, i32 0, i32 4
  %5 = getelementptr inbounds nuw %struct.Vec_Int_t_, ptr %4, i32 0, i32 1
  %6 = load i32, ptr %5, align 4, !tbaa !77
  ret i32 %6
}

; Function Attrs: inlinehint nounwind uwtable
define internal i32 @Vec_IntFind(ptr noundef %0, i32 noundef %1) #3 {
  %3 = alloca i32, align 4
  %4 = alloca ptr, align 8
  %5 = alloca i32, align 4
  %6 = alloca i32, align 4
  %7 = alloca i32, align 4
  store ptr %0, ptr %4, align 8, !tbaa !118
  store i32 %1, ptr %5, align 4, !tbaa !8
  call void @llvm.lifetime.start.p0(i64 4, ptr %6) #9
  store i32 0, ptr %6, align 4, !tbaa !8
  br label %8

8:                                                ; preds = %27, %2
  %9 = load i32, ptr %6, align 4, !tbaa !8
  %10 = load ptr, ptr %4, align 8, !tbaa !118
  %11 = getelementptr inbounds nuw %struct.Vec_Int_t_, ptr %10, i32 0, i32 1
  %12 = load i32, ptr %11, align 4, !tbaa !121
  %13 = icmp slt i32 %9, %12
  br i1 %13, label %14, label %30

14:                                               ; preds = %8
  %15 = load ptr, ptr %4, align 8, !tbaa !118
  %16 = getelementptr inbounds nuw %struct.Vec_Int_t_, ptr %15, i32 0, i32 2
  %17 = load ptr, ptr %16, align 8, !tbaa !122
  %18 = load i32, ptr %6, align 4, !tbaa !8
  %19 = sext i32 %18 to i64
  %20 = getelementptr inbounds i32, ptr %17, i64 %19
  %21 = load i32, ptr %20, align 4, !tbaa !8
  %22 = load i32, ptr %5, align 4, !tbaa !8
  %23 = icmp eq i32 %21, %22
  br i1 %23, label %24, label %26

24:                                               ; preds = %14
  %25 = load i32, ptr %6, align 4, !tbaa !8
  store i32 %25, ptr %3, align 4
  store i32 1, ptr %7, align 4
  br label %31

26:                                               ; preds = %14
  br label %27

27:                                               ; preds = %26
  %28 = load i32, ptr %6, align 4, !tbaa !8
  %29 = add nsw i32 %28, 1
  store i32 %29, ptr %6, align 4, !tbaa !8
  br label %8, !llvm.loop !123

30:                                               ; preds = %8
  store i32 -1, ptr %3, align 4
  store i32 1, ptr %7, align 4
  br label %31

31:                                               ; preds = %30, %24
  call void @llvm.lifetime.end.p0(i64 4, ptr %6) #9
  %32 = load i32, ptr %3, align 4
  ret i32 %32
}

; Function Attrs: inlinehint nounwind uwtable
define internal i32 @Abc_ObjId(ptr noundef %0) #3 {
  %2 = alloca ptr, align 8
  store ptr %0, ptr %2, align 8, !tbaa !10
  %3 = load ptr, ptr %2, align 8, !tbaa !10
  %4 = getelementptr inbounds nuw %struct.Abc_Obj_t_, ptr %3, i32 0, i32 2
  %5 = load i32, ptr %4, align 8, !tbaa !72
  ret i32 %5
}

; Function Attrs: nounwind uwtable
define i64 @Abc_ObjComputeTruth(ptr noundef %0, ptr noundef %1) #0 {
  %3 = alloca i64, align 8
  %4 = alloca ptr, align 8
  %5 = alloca ptr, align 8
  %6 = alloca i32, align 4
  %7 = alloca i64, align 8
  %8 = alloca i64, align 8
  %9 = alloca i64, align 8
  %10 = alloca i32, align 4
  store ptr %0, ptr %4, align 8, !tbaa !10
  store ptr %1, ptr %5, align 8, !tbaa !118
  call void @llvm.lifetime.start.p0(i64 4, ptr %6) #9
  call void @llvm.lifetime.start.p0(i64 8, ptr %7) #9
  call void @llvm.lifetime.start.p0(i64 8, ptr %8) #9
  call void @llvm.lifetime.start.p0(i64 8, ptr %9) #9
  %11 = load ptr, ptr %5, align 8, !tbaa !118
  %12 = load ptr, ptr %4, align 8, !tbaa !10
  %13 = call i32 @Abc_ObjId(ptr noundef %12)
  %14 = call i32 @Vec_IntFind(ptr noundef %11, i32 noundef %13)
  store i32 %14, ptr %6, align 4, !tbaa !8
  %15 = icmp sge i32 %14, 0
  br i1 %15, label %16, label %21

16:                                               ; preds = %2
  %17 = load i32, ptr %6, align 4, !tbaa !8
  %18 = sext i32 %17 to i64
  %19 = getelementptr inbounds [6 x i64], ptr @s__Truths6, i64 0, i64 %18
  %20 = load i64, ptr %19, align 8, !tbaa !119
  store i64 %20, ptr %3, align 8
  store i32 1, ptr %10, align 4
  br label %51

21:                                               ; preds = %2
  %22 = load ptr, ptr %4, align 8, !tbaa !10
  %23 = call i32 @Abc_ObjFaninNum(ptr noundef %22)
  %24 = icmp eq i32 %23, 0
  br i1 %24, label %25, label %30

25:                                               ; preds = %21
  %26 = load ptr, ptr %4, align 8, !tbaa !10
  %27 = call i32 @Abc_NodeIsConst0(ptr noundef %26)
  %28 = icmp ne i32 %27, 0
  %29 = select i1 %28, i64 0, i64 -1
  store i64 %29, ptr %3, align 8
  store i32 1, ptr %10, align 4
  br label %51

30:                                               ; preds = %21
  %31 = load ptr, ptr %4, align 8, !tbaa !10
  %32 = call ptr @Abc_ObjFanin(ptr noundef %31, i32 noundef 2)
  %33 = load ptr, ptr %5, align 8, !tbaa !118
  %34 = call i64 @Abc_ObjComputeTruth(ptr noundef %32, ptr noundef %33)
  store i64 %34, ptr %7, align 8, !tbaa !119
  %35 = load ptr, ptr %4, align 8, !tbaa !10
  %36 = call ptr @Abc_ObjFanin(ptr noundef %35, i32 noundef 1)
  %37 = load ptr, ptr %5, align 8, !tbaa !118
  %38 = call i64 @Abc_ObjComputeTruth(ptr noundef %36, ptr noundef %37)
  store i64 %38, ptr %8, align 8, !tbaa !119
  %39 = load ptr, ptr %4, align 8, !tbaa !10
  %40 = call ptr @Abc_ObjFanin(ptr noundef %39, i32 noundef 0)
  %41 = load ptr, ptr %5, align 8, !tbaa !118
  %42 = call i64 @Abc_ObjComputeTruth(ptr noundef %40, ptr noundef %41)
  store i64 %42, ptr %9, align 8, !tbaa !119
  %43 = load i64, ptr %9, align 8, !tbaa !119
  %44 = load i64, ptr %8, align 8, !tbaa !119
  %45 = and i64 %43, %44
  %46 = load i64, ptr %9, align 8, !tbaa !119
  %47 = xor i64 %46, -1
  %48 = load i64, ptr %7, align 8, !tbaa !119
  %49 = and i64 %47, %48
  %50 = or i64 %45, %49
  store i64 %50, ptr %3, align 8
  store i32 1, ptr %10, align 4
  br label %51

51:                                               ; preds = %30, %25, %16
  call void @llvm.lifetime.end.p0(i64 8, ptr %9) #9
  call void @llvm.lifetime.end.p0(i64 8, ptr %8) #9
  call void @llvm.lifetime.end.p0(i64 8, ptr %7) #9
  call void @llvm.lifetime.end.p0(i64 4, ptr %6) #9
  %52 = load i64, ptr %3, align 8
  ret i64 %52
}