; Function Attrs: nounwind uwtable
define i64 @Abc_ObjComputeTruth(ptr noundef %0, ptr noundef %1) local_unnamed_addr #0 {
  %3 = getelementptr i8, ptr %0, i64 16
  %.val22 = load i32, ptr %3, align 8, !tbaa !54
  %4 = getelementptr inbounds nuw i8, ptr %1, i64 4
  %5 = load i32, ptr %4, align 4, !tbaa !118
  %6 = icmp sgt i32 %5, 0
  br i1 %6, label %.lr.ph.i, label %Vec_IntFind.exit.thread

.lr.ph.i:                                         ; preds = %2
  %7 = getelementptr inbounds nuw i8, ptr %1, i64 8
  %8 = load ptr, ptr %7, align 8, !tbaa !119
  %wide.trip.count.i = zext nneg i32 %5 to i64
  br label %9

9:                                                ; preds = %13, %.lr.ph.i
  %indvars.iv.i = phi i64 [ 0, %.lr.ph.i ], [ %indvars.iv.next.i, %13 ]
  %10 = getelementptr inbounds nuw i32, ptr %8, i64 %indvars.iv.i
  %11 = load i32, ptr %10, align 4, !tbaa !40
  %12 = icmp eq i32 %11, %.val22
  br i1 %12, label %Vec_IntFind.exit, label %13

13:                                               ; preds = %9
  %indvars.iv.next.i = add nuw nsw i64 %indvars.iv.i, 1
  %exitcond.not.i = icmp eq i64 %indvars.iv.next.i, %wide.trip.count.i
  br i1 %exitcond.not.i, label %Vec_IntFind.exit.thread, label %9, !llvm.loop !120

Vec_IntFind.exit:                                 ; preds = %9
  %14 = and i64 %indvars.iv.i, 4294967295
  %15 = getelementptr inbounds nuw [6 x i64], ptr @s__Truths6, i64 0, i64 %14
  %16 = load i64, ptr %15, align 8, !tbaa !121
  br label %common.ret30

Vec_IntFind.exit.thread:                          ; preds = %13, %2
  %17 = getelementptr i8, ptr %0, i64 28
  %.val = load i32, ptr %17, align 4, !tbaa !60
  %18 = icmp eq i32 %.val, 0
  br i1 %18, label %19, label %22

19:                                               ; preds = %Vec_IntFind.exit.thread
  %20 = tail call i32 @Abc_NodeIsConst0(ptr noundef nonnull %0) #16
  %.not = icmp eq i32 %20, 0
  %21 = sext i1 %.not to i64
  br label %common.ret30

common.ret30:                                     ; preds = %19, %Vec_IntFind.exit, %22
  %common.ret30.op = phi i64 [ %50, %22 ], [ %16, %Vec_IntFind.exit ], [ %21, %19 ]
  ret i64 %common.ret30.op

22:                                               ; preds = %Vec_IntFind.exit.thread
  %.val20 = load ptr, ptr %0, align 8, !tbaa !64
  %23 = getelementptr i8, ptr %0, i64 32
  %.val21 = load ptr, ptr %23, align 8, !tbaa !96
  %24 = getelementptr i8, ptr %.val20, i64 32
  %.val20.val = load ptr, ptr %24, align 8, !tbaa !48
  %25 = getelementptr i8, ptr %.val20.val, i64 8
  %.val20.val.val = load ptr, ptr %25, align 8, !tbaa !26
  %26 = getelementptr inbounds nuw i8, ptr %.val21, i64 8
  %27 = load i32, ptr %26, align 4, !tbaa !40
  %28 = sext i32 %27 to i64
  %29 = getelementptr inbounds ptr, ptr %.val20.val.val, i64 %28
  %30 = load ptr, ptr %29, align 8, !tbaa !27
  %31 = tail call i64 @Abc_ObjComputeTruth(ptr noundef %30, ptr noundef %1)
  %.val18 = load ptr, ptr %0, align 8, !tbaa !64
  %.val19 = load ptr, ptr %23, align 8, !tbaa !96
  %32 = getelementptr i8, ptr %.val18, i64 32
  %.val18.val = load ptr, ptr %32, align 8, !tbaa !48
  %33 = getelementptr i8, ptr %.val18.val, i64 8
  %.val18.val.val = load ptr, ptr %33, align 8, !tbaa !26
  %34 = getelementptr inbounds nuw i8, ptr %.val19, i64 4
  %35 = load i32, ptr %34, align 4, !tbaa !40
  %36 = sext i32 %35 to i64
  %37 = getelementptr inbounds ptr, ptr %.val18.val.val, i64 %36
  %38 = load ptr, ptr %37, align 8, !tbaa !27
  %39 = tail call i64 @Abc_ObjComputeTruth(ptr noundef %38, ptr noundef %1)
  %.val16 = load ptr, ptr %0, align 8, !tbaa !64
  %.val17 = load ptr, ptr %23, align 8, !tbaa !96
  %40 = getelementptr i8, ptr %.val16, i64 32
  %.val16.val = load ptr, ptr %40, align 8, !tbaa !48
  %41 = getelementptr i8, ptr %.val16.val, i64 8
  %.val16.val.val = load ptr, ptr %41, align 8, !tbaa !26
  %42 = load i32, ptr %.val17, align 4, !tbaa !40
  %43 = sext i32 %42 to i64
  %44 = getelementptr inbounds ptr, ptr %.val16.val.val, i64 %43
  %45 = load ptr, ptr %44, align 8, !tbaa !27
  %46 = tail call i64 @Abc_ObjComputeTruth(ptr noundef %45, ptr noundef %1)
  %47 = and i64 %46, %39
  %48 = xor i64 %46, -1
  %49 = and i64 %31, %48
  %50 = or i64 %47, %49
  br label %common.ret30
}